; Function Attrs: mustprogress uwtable
define hidden void @_ZN17asserted_formulas16find_macros_coreEv(ptr noundef nonnull align 8 dereferenceable(7236) %0) local_unnamed_addr #3 align 2 personality ptr @__gxx_personality_v0 {
  %2 = alloca %class.vector.10, align 8
  call void @llvm.lifetime.start.p0(i64 8, ptr nonnull %2) #24
  store ptr null, ptr %2, align 8, !tbaa !25
  %3 = getelementptr inbounds nuw i8, ptr %0, i64 936
  %4 = load ptr, ptr %3, align 8, !tbaa !25
  %5 = icmp eq ptr %4, null
  br i1 %5, label %_ZNK6vectorI14justified_exprLb1EjE4sizeEv.exit, label %6

6:                                                ; preds = %1
  %7 = getelementptr inbounds i8, ptr %4, i64 -4
  %8 = load i32, ptr %7, align 4, !tbaa !385
  br label %_ZNK6vectorI14justified_exprLb1EjE4sizeEv.exit

_ZNK6vectorI14justified_exprLb1EjE4sizeEv.exit:   ; preds = %1, %6
  %.0.i = phi i32 [ %8, %6 ], [ 0, %1 ]
  %9 = getelementptr inbounds nuw i8, ptr %0, i64 1520
  %10 = load ptr, ptr %9, align 8, !tbaa !301
  %11 = getelementptr inbounds nuw i8, ptr %0, i64 944
  %12 = load i32, ptr %11, align 8, !tbaa !28
  %13 = sub i32 %.0.i, %12
  %14 = zext i32 %12 to i64
  %15 = getelementptr inbounds nuw %class.justified_expr, ptr %4, i64 %14
  invoke void @_ZN12macro_finderclEjPK14justified_exprR6vectorIS0_Lb1EjE(ptr noundef nonnull align 8 dereferenceable(40) %10, i32 noundef %13, ptr noundef %15, ptr noundef nonnull align 8 dereferenceable(8) %2)
          to label %16 unwind label %22

16:                                               ; preds = %_ZNK6vectorI14justified_exprLb1EjE4sizeEv.exit
  invoke void @_ZN17asserted_formulas22swap_asserted_formulasER6vectorI14justified_exprLb1EjE(ptr noundef nonnull align 8 dereferenceable(7236) %0, ptr noundef nonnull align 8 dereferenceable(8) %2)
          to label %17 unwind label %22

17:                                               ; preds = %16
  invoke void @_ZN17asserted_formulas16reduce_and_solveEv(ptr noundef nonnull align 8 dereferenceable(7236) %0)
          to label %18 unwind label %22

18:                                               ; preds = %17
  invoke void @_ZN6vectorI14justified_exprLb1EjE7destroyEv(ptr noundef nonnull align 8 dereferenceable(8) %2)
          to label %_ZN6vectorI14justified_exprLb1EjED2Ev.exit unwind label %19

19:                                               ; preds = %18
  %20 = landingpad { ptr, i32 }
          catch ptr null
  %21 = extractvalue { ptr, i32 } %20, 0
  call void @__clang_call_terminate(ptr %21) #25
  unreachable

_ZN6vectorI14justified_exprLb1EjED2Ev.exit:       ; preds = %18
  call void @llvm.lifetime.end.p0(i64 8, ptr nonnull %2) #24
  ret void

22:                                               ; preds = %17, %16, %_ZNK6vectorI14justified_exprLb1EjE4sizeEv.exit
  %23 = landingpad { ptr, i32 }
          cleanup
  invoke void @_ZN6vectorI14justified_exprLb1EjE7destroyEv(ptr noundef nonnull align 8 dereferenceable(8) %2)
          to label %_ZN6vectorI14justified_exprLb1EjED2Ev.exit3 unwind label %24

24:                                               ; preds = %22
  %25 = landingpad { ptr, i32 }
          catch ptr null
  %26 = extractvalue { ptr, i32 } %25, 0
  call void @__clang_call_terminate(ptr %26) #25
  unreachable

_ZN6vectorI14justified_exprLb1EjED2Ev.exit3:      ; preds = %22
  call void @llvm.lifetime.end.p0(i64 8, ptr nonnull %2) #24
  resume { ptr, i32 } %23
}